target datalayout = "e-m:e-p270:32:32-p271:32:32-p272:64:64-i64:64-i128:128-f80:128-n8:16:32:64-S128"
target triple = "x86_64-pc-linux-gnu"

@hf_control_c_to_p_phy = internal global i32 0, align 4
@hf_control_p_to_c_phy = internal global i32 0, align 4
@hf_control_cig_id = internal global i32 0, align 4
@hf_control_cis_id = internal global i32 0, align 4
@hf_control_max_sdu_c_to_p = internal global i32 0, align 4
@hf_control_rfu_1 = internal global i32 0, align 4
@hf_control_framed = internal global i32 0, align 4
@hf_control_max_sdu_p_to_c = internal global i32 0, align 4
@hf_control_rfu_2 = internal global i32 0, align 4
@hf_control_sdu_interval_c_to_p = internal global i32 0, align 4
@hf_control_rfu_3 = internal global i32 0, align 4
@hf_control_sdu_interval_p_to_c = internal global i32 0, align 4
@hf_control_rfu_4 = internal global i32 0, align 4
@hf_control_max_pdu_c_to_p = internal global i32 0, align 4
@hf_control_max_pdu_p_to_c = internal global i32 0, align 4
@hf_control_num_sub_events = internal global i32 0, align 4
@hf_control_sub_interval = internal global i32 0, align 4
@hf_control_bn_c_to_p = internal global i32 0, align 4
@hf_control_bn_p_to_c = internal global i32 0, align 4
@hf_control_ft_c_to_p = internal global i32 0, align 4
@hf_control_ft_p_to_c = internal global i32 0, align 4
@hf_control_iso_interval = internal global i32 0, align 4
@hf_control_cis_offset_min = internal global i32 0, align 4
@hf_control_cis_offset_max = internal global i32 0, align 4
@hf_control_conn_event_count = internal global i32 0, align 4
@ett_c_to_p_phy = internal global i32 0, align 4
@ett_p_to_c_phy = internal global i32 0, align 4
@.str.974 = private unnamed_addr constant [11 x i8] c" (%g msec)\00", align 1
@hfx_control_c_to_p_phy = internal constant [5 x ptr] [ptr @hf_control_c_to_p_phy_le_1m_phy, ptr @hf_control_c_to_p_phy_le_2m_phy, ptr @hf_control_c_to_p_phy_le_coded_phy, ptr @hf_control_c_to_p_phy_reserved_bits, ptr null], align 16
@hfx_control_p_to_c_phy = internal constant [5 x ptr] [ptr @hf_control_p_to_c_phy_le_1m_phy, ptr @hf_control_p_to_c_phy_le_2m_phy, ptr @hf_control_p_to_c_phy_le_coded_phy, ptr @hf_control_p_to_c_phy_reserved_bits, ptr null], align 16

; Function Attrs: null_pointer_is_valid sspstrong uwtable
define internal i32 @dissect_cis_req(ptr noundef %0, ptr noundef %1, i32 noundef %2) #0 {
  %4 = alloca ptr, align 8
  %5 = alloca ptr, align 8
  %6 = alloca i32, align 4
  %7 = alloca i32, align 4
  %8 = alloca ptr, align 8
  store ptr %0, ptr %4, align 8
  store ptr %1, ptr %5, align 8
  store i32 %2, ptr %6, align 4
  call void @llvm.lifetime.start.p0(i64 4, ptr %7) #13
  call void @llvm.lifetime.start.p0(i64 8, ptr %8) #13
  %9 = load ptr, ptr %5, align 8
  %10 = load i32, ptr @hf_control_cig_id, align 4
  %11 = load ptr, ptr %4, align 8
  %12 = load i32, ptr %6, align 4
  %13 = call ptr @proto_tree_add_item(ptr noundef %9, i32 noundef %10, ptr noundef %11, i32 noundef %12, i32 noundef 1, i32 noundef 0)
  %14 = load i32, ptr %6, align 4
  %15 = add i32 %14, 1
  store i32 %15, ptr %6, align 4
  %16 = load ptr, ptr %5, align 8
  %17 = load i32, ptr @hf_control_cis_id, align 4
  %18 = load ptr, ptr %4, align 8
  %19 = load i32, ptr %6, align 4
  %20 = call ptr @proto_tree_add_item(ptr noundef %16, i32 noundef %17, ptr noundef %18, i32 noundef %19, i32 noundef 1, i32 noundef 0)
  %21 = load i32, ptr %6, align 4
  %22 = add i32 %21, 1
  store i32 %22, ptr %6, align 4
  %23 = load ptr, ptr %5, align 8
  %24 = load ptr, ptr %4, align 8
  %25 = load i32, ptr %6, align 4
  %26 = load i32, ptr @hf_control_c_to_p_phy, align 4
  %27 = load i32, ptr @ett_c_to_p_phy, align 4
  %28 = call ptr @proto_tree_add_bitmask(ptr noundef %23, ptr noundef %24, i32 noundef %25, i32 noundef %26, i32 noundef %27, ptr noundef @hfx_control_c_to_p_phy, i32 noundef 0)
  %29 = load i32, ptr %6, align 4
  %30 = add i32 %29, 1
  store i32 %30, ptr %6, align 4
  %31 = load ptr, ptr %5, align 8
  %32 = load ptr, ptr %4, align 8
  %33 = load i32, ptr %6, align 4
  %34 = load i32, ptr @hf_control_p_to_c_phy, align 4
  %35 = load i32, ptr @ett_p_to_c_phy, align 4
  %36 = call ptr @proto_tree_add_bitmask(ptr noundef %31, ptr noundef %32, i32 noundef %33, i32 noundef %34, i32 noundef %35, ptr noundef @hfx_control_p_to_c_phy, i32 noundef 0)
  %37 = load i32, ptr %6, align 4
  %38 = add i32 %37, 1
  store i32 %38, ptr %6, align 4
  %39 = load ptr, ptr %5, align 8
  %40 = load i32, ptr @hf_control_max_sdu_c_to_p, align 4
  %41 = load ptr, ptr %4, align 8
  %42 = load i32, ptr %6, align 4
  %43 = call ptr @proto_tree_add_item(ptr noundef %39, i32 noundef %40, ptr noundef %41, i32 noundef %42, i32 noundef 2, i32 noundef -2147483648)
  %44 = load ptr, ptr %5, align 8
  %45 = load i32, ptr @hf_control_rfu_1, align 4
  %46 = load ptr, ptr %4, align 8
  %47 = load i32, ptr %6, align 4
  %48 = call ptr @proto_tree_add_item(ptr noundef %44, i32 noundef %45, ptr noundef %46, i32 noundef %47, i32 noundef 2, i32 noundef -2147483648)
  %49 = load ptr, ptr %5, align 8
  %50 = load i32, ptr @hf_control_framed, align 4
  %51 = load ptr, ptr %4, align 8
  %52 = load i32, ptr %6, align 4
  %53 = call ptr @proto_tree_add_item(ptr noundef %49, i32 noundef %50, ptr noundef %51, i32 noundef %52, i32 noundef 2, i32 noundef -2147483648)
  %54 = load i32, ptr %6, align 4
  %55 = add i32 %54, 2
  store i32 %55, ptr %6, align 4
  %56 = load ptr, ptr %5, align 8
  %57 = load i32, ptr @hf_control_max_sdu_p_to_c, align 4
  %58 = load ptr, ptr %4, align 8
  %59 = load i32, ptr %6, align 4
  %60 = call ptr @proto_tree_add_item(ptr noundef %56, i32 noundef %57, ptr noundef %58, i32 noundef %59, i32 noundef 2, i32 noundef -2147483648)
  %61 = load ptr, ptr %5, align 8
  %62 = load i32, ptr @hf_control_rfu_2, align 4
  %63 = load ptr, ptr %4, align 8
  %64 = load i32, ptr %6, align 4
  %65 = call ptr @proto_tree_add_item(ptr noundef %61, i32 noundef %62, ptr noundef %63, i32 noundef %64, i32 noundef 2, i32 noundef -2147483648)
  %66 = load i32, ptr %6, align 4
  %67 = add i32 %66, 2
  store i32 %67, ptr %6, align 4
  %68 = load ptr, ptr %5, align 8
  %69 = load i32, ptr @hf_control_sdu_interval_c_to_p, align 4
  %70 = load ptr, ptr %4, align 8
  %71 = load i32, ptr %6, align 4
  %72 = call ptr @proto_tree_add_item(ptr noundef %68, i32 noundef %69, ptr noundef %70, i32 noundef %71, i32 noundef 3, i32 noundef -2147483648)
  %73 = load ptr, ptr %5, align 8
  %74 = load i32, ptr @hf_control_rfu_3, align 4
  %75 = load ptr, ptr %4, align 8
  %76 = load i32, ptr %6, align 4
  %77 = call ptr @proto_tree_add_item(ptr noundef %73, i32 noundef %74, ptr noundef %75, i32 noundef %76, i32 noundef 3, i32 noundef -2147483648)
  %78 = load i32, ptr %6, align 4
  %79 = add i32 %78, 3
  store i32 %79, ptr %6, align 4
  %80 = load ptr, ptr %5, align 8
  %81 = load i32, ptr @hf_control_sdu_interval_p_to_c, align 4
  %82 = load ptr, ptr %4, align 8
  %83 = load i32, ptr %6, align 4
  %84 = call ptr @proto_tree_add_item(ptr noundef %80, i32 noundef %81, ptr noundef %82, i32 noundef %83, i32 noundef 3, i32 noundef -2147483648)
  %85 = load ptr, ptr %5, align 8
  %86 = load i32, ptr @hf_control_rfu_4, align 4
  %87 = load ptr, ptr %4, align 8
  %88 = load i32, ptr %6, align 4
  %89 = call ptr @proto_tree_add_item(ptr noundef %85, i32 noundef %86, ptr noundef %87, i32 noundef %88, i32 noundef 3, i32 noundef -2147483648)
  %90 = load i32, ptr %6, align 4
  %91 = add i32 %90, 3
  store i32 %91, ptr %6, align 4
  %92 = load ptr, ptr %5, align 8
  %93 = load i32, ptr @hf_control_max_pdu_c_to_p, align 4
  %94 = load ptr, ptr %4, align 8
  %95 = load i32, ptr %6, align 4
  %96 = call ptr @proto_tree_add_item(ptr noundef %92, i32 noundef %93, ptr noundef %94, i32 noundef %95, i32 noundef 2, i32 noundef -2147483648)
  %97 = load i32, ptr %6, align 4
  %98 = add i32 %97, 2
  store i32 %98, ptr %6, align 4
  %99 = load ptr, ptr %5, align 8
  %100 = load i32, ptr @hf_control_max_pdu_p_to_c, align 4
  %101 = load ptr, ptr %4, align 8
  %102 = load i32, ptr %6, align 4
  %103 = call ptr @proto_tree_add_item(ptr noundef %99, i32 noundef %100, ptr noundef %101, i32 noundef %102, i32 noundef 2, i32 noundef -2147483648)
  %104 = load i32, ptr %6, align 4
  %105 = add i32 %104, 2
  store i32 %105, ptr %6, align 4
  %106 = load ptr, ptr %5, align 8
  %107 = load i32, ptr @hf_control_num_sub_events, align 4
  %108 = load ptr, ptr %4, align 8
  %109 = load i32, ptr %6, align 4
  %110 = call ptr @proto_tree_add_item(ptr noundef %106, i32 noundef %107, ptr noundef %108, i32 noundef %109, i32 noundef 1, i32 noundef 0)
  %111 = load i32, ptr %6, align 4
  %112 = add i32 %111, 1
  store i32 %112, ptr %6, align 4
  %113 = load ptr, ptr %5, align 8
  %114 = load i32, ptr @hf_control_sub_interval, align 4
  %115 = load ptr, ptr %4, align 8
  %116 = load i32, ptr %6, align 4
  %117 = call ptr @proto_tree_add_item(ptr noundef %113, i32 noundef %114, ptr noundef %115, i32 noundef %116, i32 noundef 3, i32 noundef -2147483648)
  %118 = load i32, ptr %6, align 4
  %119 = add i32 %118, 3
  store i32 %119, ptr %6, align 4
  %120 = load ptr, ptr %5, align 8
  %121 = load i32, ptr @hf_control_bn_c_to_p, align 4
  %122 = load ptr, ptr %4, align 8
  %123 = load i32, ptr %6, align 4
  %124 = call ptr @proto_tree_add_item(ptr noundef %120, i32 noundef %121, ptr noundef %122, i32 noundef %123, i32 noundef 1, i32 noundef 0)
  %125 = load ptr, ptr %5, align 8
  %126 = load i32, ptr @hf_control_bn_p_to_c, align 4
  %127 = load ptr, ptr %4, align 8
  %128 = load i32, ptr %6, align 4
  %129 = call ptr @proto_tree_add_item(ptr noundef %125, i32 noundef %126, ptr noundef %127, i32 noundef %128, i32 noundef 1, i32 noundef 0)
  %130 = load i32, ptr %6, align 4
  %131 = add i32 %130, 1
  store i32 %131, ptr %6, align 4
  %132 = load ptr, ptr %5, align 8
  %133 = load i32, ptr @hf_control_ft_c_to_p, align 4
  %134 = load ptr, ptr %4, align 8
  %135 = load i32, ptr %6, align 4
  %136 = call ptr @proto_tree_add_item(ptr noundef %132, i32 noundef %133, ptr noundef %134, i32 noundef %135, i32 noundef 1, i32 noundef 0)
  %137 = load i32, ptr %6, align 4
  %138 = add i32 %137, 1
  store i32 %138, ptr %6, align 4
  %139 = load ptr, ptr %5, align 8
  %140 = load i32, ptr @hf_control_ft_p_to_c, align 4
  %141 = load ptr, ptr %4, align 8
  %142 = load i32, ptr %6, align 4
  %143 = call ptr @proto_tree_add_item(ptr noundef %139, i32 noundef %140, ptr noundef %141, i32 noundef %142, i32 noundef 1, i32 noundef 0)
  %144 = load i32, ptr %6, align 4
  %145 = add i32 %144, 1
  store i32 %145, ptr %6, align 4
  %146 = load ptr, ptr %5, align 8
  %147 = load i32, ptr @hf_control_iso_interval, align 4
  %148 = load ptr, ptr %4, align 8
  %149 = load i32, ptr %6, align 4
  %150 = call ptr @proto_tree_add_item_ret_uint(ptr noundef %146, i32 noundef %147, ptr noundef %148, i32 noundef %149, i32 noundef 2, i32 noundef -2147483648, ptr noundef %7)
  store ptr %150, ptr %8, align 8
  %151 = load ptr, ptr %8, align 8
  %152 = load i32, ptr %7, align 4
  %153 = uitofp i32 %152 to double
  %154 = fmul double %153, 1.250000e+00
  call void (ptr, ptr, ...) @proto_item_append_text(ptr noundef %151, ptr noundef @.str.974, double noundef %154)
  %155 = load i32, ptr %6, align 4
  %156 = add i32 %155, 2
  store i32 %156, ptr %6, align 4
  %157 = load ptr, ptr %5, align 8
  %158 = load i32, ptr @hf_control_cis_offset_min, align 4
  %159 = load ptr, ptr %4, align 8
  %160 = load i32, ptr %6, align 4
  %161 = call ptr @proto_tree_add_item(ptr noundef %157, i32 noundef %158, ptr noundef %159, i32 noundef %160, i32 noundef 3, i32 noundef -2147483648)
  %162 = load i32, ptr %6, align 4
  %163 = add i32 %162, 3
  store i32 %163, ptr %6, align 4
  %164 = load ptr, ptr %5, align 8
  %165 = load i32, ptr @hf_control_cis_offset_max, align 4
  %166 = load ptr, ptr %4, align 8
  %167 = load i32, ptr %6, align 4
  %168 = call ptr @proto_tree_add_item(ptr noundef %164, i32 noundef %165, ptr noundef %166, i32 noundef %167, i32 noundef 3, i32 noundef -2147483648)
  %169 = load i32, ptr %6, align 4
  %170 = add i32 %169, 3
  store i32 %170, ptr %6, align 4
  %171 = load ptr, ptr %5, align 8
  %172 = load i32, ptr @hf_control_conn_event_count, align 4
  %173 = load ptr, ptr %4, align 8
  %174 = load i32, ptr %6, align 4
  %175 = call ptr @proto_tree_add_item(ptr noundef %171, i32 noundef %172, ptr noundef %173, i32 noundef %174, i32 noundef 2, i32 noundef -2147483648)
  %176 = load i32, ptr %6, align 4
  %177 = add i32 %176, 2
  store i32 %177, ptr %6, align 4
  %178 = load i32, ptr %6, align 4
  call void @llvm.lifetime.end.p0(i64 8, ptr %8) #13
  call void @llvm.lifetime.end.p0(i64 4, ptr %7) #13
  ret i32 %178
}