; Function Attrs: null_pointer_is_valid sspstrong uwtable
define internal fastcc range(i32 38, 40) i32 @dissect_cis_req(ptr noundef %0, ptr noundef %1, i32 noundef range(i32 3, 5) %2) unnamed_addr #0 {
  %4 = alloca i32, align 4
  call void @llvm.lifetime.start.p0(i64 4, ptr nonnull %4) #12
  %5 = load i32, ptr @hf_control_cig_id, align 4
  %6 = tail call ptr @proto_tree_add_item(ptr noundef %1, i32 noundef %5, ptr noundef %0, i32 noundef %2, i32 noundef 1, i32 noundef 0)
  %7 = add nuw nsw i32 %2, 1
  %8 = load i32, ptr @hf_control_cis_id, align 4
  %9 = tail call ptr @proto_tree_add_item(ptr noundef %1, i32 noundef %8, ptr noundef %0, i32 noundef %7, i32 noundef 1, i32 noundef 0)
  %10 = add nuw nsw i32 %2, 2
  %11 = load i32, ptr @hf_control_c_to_p_phy, align 4
  %12 = load i32, ptr @ett_c_to_p_phy, align 4
  %13 = tail call ptr @proto_tree_add_bitmask(ptr noundef %1, ptr noundef %0, i32 noundef %10, i32 noundef %11, i32 noundef %12, ptr noundef nonnull @hfx_control_c_to_p_phy, i32 noundef 0)
  %14 = add nuw nsw i32 %2, 3
  %15 = load i32, ptr @hf_control_p_to_c_phy, align 4
  %16 = load i32, ptr @ett_p_to_c_phy, align 4
  %17 = tail call ptr @proto_tree_add_bitmask(ptr noundef %1, ptr noundef %0, i32 noundef %14, i32 noundef %15, i32 noundef %16, ptr noundef nonnull @hfx_control_p_to_c_phy, i32 noundef 0)
  %18 = add nuw nsw i32 %2, 4
  %19 = load i32, ptr @hf_control_max_sdu_c_to_p, align 4
  %20 = tail call ptr @proto_tree_add_item(ptr noundef %1, i32 noundef %19, ptr noundef %0, i32 noundef %18, i32 noundef 2, i32 noundef -2147483648)
  %21 = load i32, ptr @hf_control_rfu_1, align 4
  %22 = tail call ptr @proto_tree_add_item(ptr noundef %1, i32 noundef %21, ptr noundef %0, i32 noundef %18, i32 noundef 2, i32 noundef -2147483648)
  %23 = load i32, ptr @hf_control_framed, align 4
  %24 = tail call ptr @proto_tree_add_item(ptr noundef %1, i32 noundef %23, ptr noundef %0, i32 noundef %18, i32 noundef 2, i32 noundef -2147483648)
  %25 = add nuw nsw i32 %2, 6
  %26 = load i32, ptr @hf_control_max_sdu_p_to_c, align 4
  %27 = tail call ptr @proto_tree_add_item(ptr noundef %1, i32 noundef %26, ptr noundef %0, i32 noundef %25, i32 noundef 2, i32 noundef -2147483648)
  %28 = load i32, ptr @hf_control_rfu_2, align 4
  %29 = tail call ptr @proto_tree_add_item(ptr noundef %1, i32 noundef %28, ptr noundef %0, i32 noundef %25, i32 noundef 2, i32 noundef -2147483648)
  %30 = or disjoint i32 %2, 8
  %31 = load i32, ptr @hf_control_sdu_interval_c_to_p, align 4
  %32 = tail call ptr @proto_tree_add_item(ptr noundef %1, i32 noundef %31, ptr noundef %0, i32 noundef %30, i32 noundef 3, i32 noundef -2147483648)
  %33 = load i32, ptr @hf_control_rfu_3, align 4
  %34 = tail call ptr @proto_tree_add_item(ptr noundef %1, i32 noundef %33, ptr noundef %0, i32 noundef %30, i32 noundef 3, i32 noundef -2147483648)
  %35 = add nuw nsw i32 %2, 11
  %36 = load i32, ptr @hf_control_sdu_interval_p_to_c, align 4
  %37 = tail call ptr @proto_tree_add_item(ptr noundef %1, i32 noundef %36, ptr noundef %0, i32 noundef %35, i32 noundef 3, i32 noundef -2147483648)
  %38 = load i32, ptr @hf_control_rfu_4, align 4
  %39 = tail call ptr @proto_tree_add_item(ptr noundef %1, i32 noundef %38, ptr noundef %0, i32 noundef %35, i32 noundef 3, i32 noundef -2147483648)
  %40 = add nuw nsw i32 %2, 14
  %41 = load i32, ptr @hf_control_max_pdu_c_to_p, align 4
  %42 = tail call ptr @proto_tree_add_item(ptr noundef %1, i32 noundef %41, ptr noundef %0, i32 noundef %40, i32 noundef 2, i32 noundef -2147483648)
  %43 = or disjoint i32 %2, 16
  %44 = load i32, ptr @hf_control_max_pdu_p_to_c, align 4
  %45 = tail call ptr @proto_tree_add_item(ptr noundef %1, i32 noundef %44, ptr noundef %0, i32 noundef %43, i32 noundef 2, i32 noundef -2147483648)
  %46 = add nuw nsw i32 %2, 18
  %47 = load i32, ptr @hf_control_num_sub_events, align 4
  %48 = tail call ptr @proto_tree_add_item(ptr noundef %1, i32 noundef %47, ptr noundef %0, i32 noundef %46, i32 noundef 1, i32 noundef 0)
  %49 = add nuw nsw i32 %2, 19
  %50 = load i32, ptr @hf_control_sub_interval, align 4
  %51 = tail call ptr @proto_tree_add_item(ptr noundef %1, i32 noundef %50, ptr noundef %0, i32 noundef %49, i32 noundef 3, i32 noundef -2147483648)
  %52 = add nuw nsw i32 %2, 22
  %53 = load i32, ptr @hf_control_bn_c_to_p, align 4
  %54 = tail call ptr @proto_tree_add_item(ptr noundef %1, i32 noundef %53, ptr noundef %0, i32 noundef %52, i32 noundef 1, i32 noundef 0)
  %55 = load i32, ptr @hf_control_bn_p_to_c, align 4
  %56 = tail call ptr @proto_tree_add_item(ptr noundef %1, i32 noundef %55, ptr noundef %0, i32 noundef %52, i32 noundef 1, i32 noundef 0)
  %57 = add nuw nsw i32 %2, 23
  %58 = load i32, ptr @hf_control_ft_c_to_p, align 4
  %59 = tail call ptr @proto_tree_add_item(ptr noundef %1, i32 noundef %58, ptr noundef %0, i32 noundef %57, i32 noundef 1, i32 noundef 0)
  %60 = or disjoint i32 %2, 24
  %61 = load i32, ptr @hf_control_ft_p_to_c, align 4
  %62 = tail call ptr @proto_tree_add_item(ptr noundef %1, i32 noundef %61, ptr noundef %0, i32 noundef %60, i32 noundef 1, i32 noundef 0)
  %63 = add nuw nsw i32 %2, 25
  %64 = load i32, ptr @hf_control_iso_interval, align 4
  %65 = call ptr @proto_tree_add_item_ret_uint(ptr noundef %1, i32 noundef %64, ptr noundef %0, i32 noundef %63, i32 noundef 2, i32 noundef -2147483648, ptr noundef nonnull %4)
  %66 = load i32, ptr %4, align 4
  %67 = uitofp i32 %66 to double
  %68 = fmul double %67, 1.250000e+00
  call void (ptr, ptr, ...) @proto_item_append_text(ptr noundef %65, ptr noundef nonnull @.str.974, double noundef %68)
  %69 = add nuw nsw i32 %2, 27
  %70 = load i32, ptr @hf_control_cis_offset_min, align 4
  %71 = call ptr @proto_tree_add_item(ptr noundef %1, i32 noundef %70, ptr noundef %0, i32 noundef %69, i32 noundef 3, i32 noundef -2147483648)
  %72 = add nuw nsw i32 %2, 30
  %73 = load i32, ptr @hf_control_cis_offset_max, align 4
  %74 = call ptr @proto_tree_add_item(ptr noundef %1, i32 noundef %73, ptr noundef %0, i32 noundef %72, i32 noundef 3, i32 noundef -2147483648)
  %75 = add nuw nsw i32 %2, 33
  %76 = load i32, ptr @hf_control_conn_event_count, align 4
  %77 = call ptr @proto_tree_add_item(ptr noundef %1, i32 noundef %76, ptr noundef %0, i32 noundef %75, i32 noundef 2, i32 noundef -2147483648)
  %78 = add nuw nsw i32 %2, 35
  call void @llvm.lifetime.end.p0(i64 4, ptr nonnull %4) #12
  ret i32 %78
}